target datalayout = "e-m:e-p270:32:32-p271:32:32-p272:64:64-i64:64-i128:128-f80:128-n8:16:32:64-S128"
target triple = "x86_64-pc-linux-gnu"

%struct.malloc_mutex_s = type { %union.anon }
%union.anon = type { %struct.anon.3 }
%struct.anon.3 = type { %struct.mutex_prof_data_t, %union.pthread_mutex_t, %struct.atomic_b_t }
%struct.mutex_prof_data_t = type { %struct.nstime_t, %struct.nstime_t, i64, i64, i32, %struct.atomic_u32_t, i64, ptr, i64 }
%struct.nstime_t = type { i64 }
%struct.atomic_u32_t = type { i32 }
%union.pthread_mutex_t = type { %struct.__pthread_mutex_s }
%struct.__pthread_mutex_s = type { i32, i32, i32, i32, i32, i16, i16, %struct.__pthread_internal_list }
%struct.__pthread_internal_list = type { ptr, ptr }
%struct.atomic_b_t = type { i8 }
%struct.tcache_slow_s = type { %struct.anon, %struct.cache_bin_array_descriptor_s, ptr, i32, [39 x i8], [39 x i8], [39 x i8], ptr, ptr }
%struct.anon = type { ptr, ptr }
%struct.cache_bin_array_descriptor_s = type { %struct.anon.0, ptr }
%struct.anon.0 = type { ptr, ptr }
%struct.tcache_s = type { ptr, [76 x %struct.cache_bin_s] }
%struct.cache_bin_s = type { ptr, %struct.cache_bin_stats_s, i16, i16, i16 }
%struct.cache_bin_stats_s = type { i64 }
%struct.tsd_s = type { i8, i8, i64, i64, i64, i64, i64, i64, i64, i64, i64, i64, i64, i64, ptr, i64, i64, i64, ptr, ptr, %struct.ticker_geom_s, i8, %struct.tsd_binshards_s, %struct.tsd_link_t, i8, %struct.peak_s, %struct.activity_callback_thunk_s, %struct.tcache_slow_s, %struct.rtree_ctx_s, %struct.atomic_u8_t, i64, i64, i64, i64, %struct.tcache_s, %struct.witness_tsd_s }
%struct.ticker_geom_s = type { i32, i32 }
%struct.tsd_binshards_s = type { [39 x i8] }
%struct.tsd_link_t = type { ptr, ptr }
%struct.peak_s = type { i64, i64 }
%struct.activity_callback_thunk_s = type { ptr, ptr }
%struct.rtree_ctx_s = type { [16 x %struct.rtree_ctx_cache_elm_s], [8 x %struct.rtree_ctx_cache_elm_s] }
%struct.rtree_ctx_cache_elm_s = type { i64, ptr }
%struct.atomic_u8_t = type { i8 }
%struct.witness_tsd_s = type { %struct.witness_list_t, i8 }
%struct.witness_list_t = type { ptr }
%struct.tcaches_s = type { %union.anon.10 }
%union.anon.10 = type { ptr }
%struct.tsdn_s = type { %struct.tsd_s }

@tcaches_mtx = internal global %struct.malloc_mutex_s zeroinitializer, align 8
@je_tcaches = hidden global ptr null, align 8

; Function Attrs: alwaysinline nounwind uwtable
define internal ptr @tsd_witness_tsdp_get_unsafe(ptr noundef %0) #1 {
  %2 = alloca ptr, align 8
  store ptr %0, ptr %2, align 8, !tbaa !14
  %3 = load ptr, ptr %2, align 8, !tbaa !14
  %4 = getelementptr inbounds nuw %struct.tsd_s, ptr %3, i32 0, i32 35
  ret ptr %4
}

; Function Attrs: alwaysinline nounwind uwtable
define internal zeroext i8 @tsd_state_get(ptr noundef %0) #1 {
  %2 = alloca ptr, align 8
  store ptr %0, ptr %2, align 8, !tbaa !14
  %3 = load ptr, ptr %2, align 8, !tbaa !14
  %4 = getelementptr inbounds nuw %struct.tsd_s, ptr %3, i32 0, i32 29
  %5 = load i8, ptr %4, align 8, !tbaa !39
  ret i8 %5
}

; Function Attrs: inlinehint nounwind uwtable
define internal void @witness_assert_owner(ptr noundef %0, ptr noundef %1) #3 {
  %3 = alloca ptr, align 8
  %4 = alloca ptr, align 8
  store ptr %0, ptr %3, align 8, !tbaa !144
  store ptr %1, ptr %4, align 8, !tbaa !221
  ret void
}

; Function Attrs: alwaysinline nounwind uwtable
define internal i32 @atomic_enum_to_builtin(i32 noundef %0) #1 {
  %2 = alloca i32, align 4
  %3 = alloca i32, align 4
  store i32 %0, ptr %3, align 4, !tbaa !30
  %4 = load i32, ptr %3, align 4, !tbaa !30
  switch i32 %4, label %10 [
    i32 0, label %5
    i32 1, label %6
    i32 2, label %7
    i32 3, label %8
    i32 4, label %9
  ]

5:                                                ; preds = %1
  store i32 0, ptr %2, align 4
  br label %12

6:                                                ; preds = %1
  store i32 2, ptr %2, align 4
  br label %12

7:                                                ; preds = %1
  store i32 3, ptr %2, align 4
  br label %12

8:                                                ; preds = %1
  store i32 4, ptr %2, align 4
  br label %12

9:                                                ; preds = %1
  store i32 5, ptr %2, align 4
  br label %12

10:                                               ; preds = %1
  br label %11

11:                                               ; preds = %10
  unreachable

12:                                               ; preds = %5, %6, %7, %8, %9
  %13 = load i32, ptr %2, align 4
  ret i32 %13
}

; Function Attrs: alwaysinline nounwind uwtable
define internal ptr @tsd_witness_tsdp_get(ptr noundef %0) #1 {
  %2 = alloca ptr, align 8
  %3 = alloca i8, align 1
  store ptr %0, ptr %2, align 8, !tbaa !14
  call void @llvm.lifetime.start.p0(i64 1, ptr %3) #12
  %4 = load ptr, ptr %2, align 8, !tbaa !14
  %5 = call zeroext i8 @tsd_state_get(ptr noundef %4)
  store i8 %5, ptr %3, align 1, !tbaa !39
  br label %6

6:                                                ; preds = %1
  br label %7

7:                                                ; preds = %6
  br label %8

8:                                                ; preds = %7
  %9 = load ptr, ptr %2, align 8, !tbaa !14
  %10 = call ptr @tsd_witness_tsdp_get_unsafe(ptr noundef %9)
  call void @llvm.lifetime.end.p0(i64 1, ptr %3) #12
  ret ptr %10
}

; Function Attrs: alwaysinline nounwind uwtable
define internal ptr @tsdn_tsd(ptr noundef %0) #1 {
  %2 = alloca ptr, align 8
  store ptr %0, ptr %2, align 8, !tbaa !4
  br label %3

3:                                                ; preds = %1
  br label %4

4:                                                ; preds = %3
  %5 = load ptr, ptr %2, align 8, !tbaa !4
  %6 = getelementptr inbounds nuw %struct.tsdn_s, ptr %5, i32 0, i32 0
  ret ptr %6
}

; Function Attrs: alwaysinline nounwind uwtable
define internal zeroext i1 @tsdn_null(ptr noundef %0) #1 {
  %2 = alloca ptr, align 8
  store ptr %0, ptr %2, align 8, !tbaa !4
  %3 = load ptr, ptr %2, align 8, !tbaa !4
  %4 = icmp eq ptr %3, null
  ret i1 %4
}

; Function Attrs: inlinehint nounwind uwtable
define internal void @witness_unlock(ptr noundef %0, ptr noundef %1) #3 {
  %3 = alloca ptr, align 8
  %4 = alloca ptr, align 8
  store ptr %0, ptr %3, align 8, !tbaa !144
  store ptr %1, ptr %4, align 8, !tbaa !221
  ret void
}

; Function Attrs: inlinehint nounwind uwtable
define internal void @malloc_mutex_assert_owner(ptr noundef %0, ptr noundef %1) #3 {
  %3 = alloca ptr, align 8
  %4 = alloca ptr, align 8
  store ptr %0, ptr %3, align 8, !tbaa !4
  store ptr %1, ptr %4, align 8, !tbaa !126
  %5 = load ptr, ptr %3, align 8, !tbaa !4
  %6 = call ptr @tsdn_witness_tsdp_get(ptr noundef %5)
  %7 = load ptr, ptr %4, align 8, !tbaa !126
  %8 = getelementptr inbounds nuw %struct.malloc_mutex_s, ptr %7, i32 0, i32 0
  call void @witness_assert_owner(ptr noundef %6, ptr noundef %8)
  ret void
}

; Function Attrs: inlinehint nounwind uwtable
define internal void @witness_lock(ptr noundef %0, ptr noundef %1) #3 {
  %3 = alloca ptr, align 8
  %4 = alloca ptr, align 8
  store ptr %0, ptr %3, align 8, !tbaa !144
  store ptr %1, ptr %4, align 8, !tbaa !221
  ret void
}

; Function Attrs: inlinehint nounwind uwtable
define internal void @mutex_owner_stats_update(ptr noundef %0, ptr noundef %1) #3 {
  %3 = alloca ptr, align 8
  %4 = alloca ptr, align 8
  %5 = alloca ptr, align 8
  store ptr %0, ptr %3, align 8, !tbaa !4
  store ptr %1, ptr %4, align 8, !tbaa !126
  call void @llvm.lifetime.start.p0(i64 8, ptr %5) #12
  %6 = load ptr, ptr %4, align 8, !tbaa !126
  %7 = getelementptr inbounds nuw %struct.malloc_mutex_s, ptr %6, i32 0, i32 0
  %8 = getelementptr inbounds nuw %struct.anon.3, ptr %7, i32 0, i32 0
  store ptr %8, ptr %5, align 8, !tbaa !9
  %9 = load ptr, ptr %5, align 8, !tbaa !9
  %10 = getelementptr inbounds nuw %struct.mutex_prof_data_t, ptr %9, i32 0, i32 8
  %11 = load i64, ptr %10, align 8, !tbaa !223
  %12 = add i64 %11, 1
  store i64 %12, ptr %10, align 8, !tbaa !223
  %13 = load ptr, ptr %5, align 8, !tbaa !9
  %14 = getelementptr inbounds nuw %struct.mutex_prof_data_t, ptr %13, i32 0, i32 7
  %15 = load ptr, ptr %14, align 8, !tbaa !225
  %16 = load ptr, ptr %3, align 8, !tbaa !4
  %17 = icmp ne ptr %15, %16
  br i1 %17, label %18, label %26

18:                                               ; preds = %2
  %19 = load ptr, ptr %3, align 8, !tbaa !4
  %20 = load ptr, ptr %5, align 8, !tbaa !9
  %21 = getelementptr inbounds nuw %struct.mutex_prof_data_t, ptr %20, i32 0, i32 7
  store ptr %19, ptr %21, align 8, !tbaa !225
  %22 = load ptr, ptr %5, align 8, !tbaa !9
  %23 = getelementptr inbounds nuw %struct.mutex_prof_data_t, ptr %22, i32 0, i32 6
  %24 = load i64, ptr %23, align 8, !tbaa !226
  %25 = add i64 %24, 1
  store i64 %25, ptr %23, align 8, !tbaa !226
  br label %26

26:                                               ; preds = %18, %2
  call void @llvm.lifetime.end.p0(i64 8, ptr %5) #12
  ret void
}

; Function Attrs: alwaysinline nounwind uwtable
define internal void @atomic_store_b(ptr noundef %0, i1 noundef zeroext %1, i32 noundef %2) #1 {
  %4 = alloca ptr, align 8
  %5 = alloca i8, align 1
  %6 = alloca i32, align 4
  store ptr %0, ptr %4, align 8, !tbaa !9
  %7 = zext i1 %1 to i8
  store i8 %7, ptr %5, align 1, !tbaa !31
  store i32 %2, ptr %6, align 4, !tbaa !30
  %8 = load ptr, ptr %4, align 8, !tbaa !9
  %9 = getelementptr inbounds nuw %struct.atomic_b_t, ptr %8, i32 0, i32 0
  %10 = load i32, ptr %6, align 4, !tbaa !30
  %11 = call i32 @atomic_enum_to_builtin(i32 noundef %10)
  switch i32 %11, label %12 [
    i32 3, label %14
    i32 5, label %16
  ]

12:                                               ; preds = %3
  %13 = load i8, ptr %5, align 1
  store atomic i8 %13, ptr %9 monotonic, align 1
  br label %18

14:                                               ; preds = %3
  %15 = load i8, ptr %5, align 1
  store atomic i8 %15, ptr %9 release, align 1
  br label %18

16:                                               ; preds = %3
  %17 = load i8, ptr %5, align 1
  store atomic i8 %17, ptr %9 seq_cst, align 1
  br label %18

18:                                               ; preds = %16, %14, %12
  ret void
}

; Function Attrs: inlinehint nounwind uwtable
define internal zeroext i1 @malloc_mutex_trylock_final(ptr noundef %0) #3 {
  %2 = alloca ptr, align 8
  store ptr %0, ptr %2, align 8, !tbaa !126
  %3 = load ptr, ptr %2, align 8, !tbaa !126
  %4 = getelementptr inbounds nuw %struct.malloc_mutex_s, ptr %3, i32 0, i32 0
  %5 = getelementptr inbounds nuw %struct.anon.3, ptr %4, i32 0, i32 1
  %6 = call i32 @pthread_mutex_trylock(ptr noundef %5) #12
  %7 = icmp ne i32 %6, 0
  ret i1 %7
}

; Function Attrs: inlinehint nounwind uwtable
define internal void @witness_assert_not_owner(ptr noundef %0, ptr noundef %1) #3 {
  %3 = alloca ptr, align 8
  %4 = alloca ptr, align 8
  store ptr %0, ptr %3, align 8, !tbaa !144
  store ptr %1, ptr %4, align 8, !tbaa !221
  ret void
}

; Function Attrs: alwaysinline nounwind uwtable
define internal ptr @tsdn_witness_tsdp_get(ptr noundef %0) #1 {
  %2 = alloca ptr, align 8
  %3 = alloca ptr, align 8
  %4 = alloca ptr, align 8
  store ptr %0, ptr %3, align 8, !tbaa !4
  %5 = load ptr, ptr %3, align 8, !tbaa !4
  %6 = call zeroext i1 @tsdn_null(ptr noundef %5)
  br i1 %6, label %7, label %8

7:                                                ; preds = %1
  store ptr null, ptr %2, align 8
  br label %13

8:                                                ; preds = %1
  call void @llvm.lifetime.start.p0(i64 8, ptr %4) #12
  %9 = load ptr, ptr %3, align 8, !tbaa !4
  %10 = call ptr @tsdn_tsd(ptr noundef %9)
  store ptr %10, ptr %4, align 8, !tbaa !14
  %11 = load ptr, ptr %4, align 8, !tbaa !14
  %12 = call ptr @tsd_witness_tsdp_get(ptr noundef %11)
  store ptr %12, ptr %2, align 8
  call void @llvm.lifetime.end.p0(i64 8, ptr %4) #12
  br label %13

13:                                               ; preds = %8, %7
  %14 = load ptr, ptr %2, align 8
  ret ptr %14
}

; Function Attrs: inlinehint nounwind uwtable
define internal void @malloc_mutex_unlock(ptr noundef %0, ptr noundef %1) #3 {
  %3 = alloca ptr, align 8
  %4 = alloca ptr, align 8
  store ptr %0, ptr %3, align 8, !tbaa !4
  store ptr %1, ptr %4, align 8, !tbaa !126
  %5 = load ptr, ptr %4, align 8, !tbaa !126
  %6 = getelementptr inbounds nuw %struct.malloc_mutex_s, ptr %5, i32 0, i32 0
  %7 = getelementptr inbounds nuw %struct.anon.3, ptr %6, i32 0, i32 2
  call void @atomic_store_b(ptr noundef %7, i1 noundef zeroext false, i32 noundef 0)
  %8 = load ptr, ptr %3, align 8, !tbaa !4
  %9 = call ptr @tsdn_witness_tsdp_get(ptr noundef %8)
  %10 = load ptr, ptr %4, align 8, !tbaa !126
  %11 = getelementptr inbounds nuw %struct.malloc_mutex_s, ptr %10, i32 0, i32 0
  call void @witness_unlock(ptr noundef %9, ptr noundef %11)
  %12 = load ptr, ptr %4, align 8, !tbaa !126
  %13 = getelementptr inbounds nuw %struct.malloc_mutex_s, ptr %12, i32 0, i32 0
  %14 = getelementptr inbounds nuw %struct.anon.3, ptr %13, i32 0, i32 1
  %15 = call i32 @pthread_mutex_unlock(ptr noundef %14) #12
  ret void
}

; Function Attrs: nounwind uwtable
define internal ptr @tcaches_elm_remove(ptr noundef %0, ptr noundef %1, i1 noundef zeroext %2) #0 {
  %4 = alloca ptr, align 8
  %5 = alloca ptr, align 8
  %6 = alloca ptr, align 8
  %7 = alloca i8, align 1
  %8 = alloca ptr, align 8
  %9 = alloca i32, align 4
  store ptr %0, ptr %5, align 8, !tbaa !14
  store ptr %1, ptr %6, align 8, !tbaa !142
  %10 = zext i1 %2 to i8
  store i8 %10, ptr %7, align 1, !tbaa !31
  %11 = load ptr, ptr %5, align 8, !tbaa !14
  %12 = call ptr @tsd_tsdn(ptr noundef %11)
  call void @malloc_mutex_assert_owner(ptr noundef %12, ptr noundef @tcaches_mtx)
  %13 = load ptr, ptr %6, align 8, !tbaa !142
  %14 = getelementptr inbounds nuw %struct.tcaches_s, ptr %13, i32 0, i32 0
  %15 = load ptr, ptr %14, align 8, !tbaa !39
  %16 = icmp eq ptr %15, null
  br i1 %16, label %17, label %18

17:                                               ; preds = %3
  store ptr null, ptr %4, align 8
  br label %37

18:                                               ; preds = %3
  call void @llvm.lifetime.start.p0(i64 8, ptr %8) #12
  %19 = load ptr, ptr %6, align 8, !tbaa !142
  %20 = getelementptr inbounds nuw %struct.tcaches_s, ptr %19, i32 0, i32 0
  %21 = load ptr, ptr %20, align 8, !tbaa !39
  store ptr %21, ptr %8, align 8, !tbaa !18
  %22 = load i8, ptr %7, align 1, !tbaa !31, !range !33, !noundef !34
  %23 = trunc i8 %22 to i1
  br i1 %23, label %24, label %27

24:                                               ; preds = %18
  %25 = load ptr, ptr %6, align 8, !tbaa !142
  %26 = getelementptr inbounds nuw %struct.tcaches_s, ptr %25, i32 0, i32 0
  store ptr inttoptr (i64 1 to ptr), ptr %26, align 8, !tbaa !39
  br label %30

27:                                               ; preds = %18
  %28 = load ptr, ptr %6, align 8, !tbaa !142
  %29 = getelementptr inbounds nuw %struct.tcaches_s, ptr %28, i32 0, i32 0
  store ptr null, ptr %29, align 8, !tbaa !39
  br label %30

30:                                               ; preds = %27, %24
  %31 = load ptr, ptr %8, align 8, !tbaa !18
  %32 = icmp eq ptr %31, inttoptr (i64 1 to ptr)
  br i1 %32, label %33, label %34

33:                                               ; preds = %30
  store ptr null, ptr %4, align 8
  store i32 1, ptr %9, align 4
  br label %36

34:                                               ; preds = %30
  %35 = load ptr, ptr %8, align 8, !tbaa !18
  store ptr %35, ptr %4, align 8
  store i32 1, ptr %9, align 4
  br label %36

36:                                               ; preds = %34, %33
  call void @llvm.lifetime.end.p0(i64 8, ptr %8) #12
  br label %37

37:                                               ; preds = %36, %17
  %38 = load ptr, ptr %4, align 8
  ret ptr %38
}

; Function Attrs: inlinehint nounwind uwtable
define internal void @malloc_mutex_lock(ptr noundef %0, ptr noundef %1) #3 {
  %3 = alloca ptr, align 8
  %4 = alloca ptr, align 8
  store ptr %0, ptr %3, align 8, !tbaa !4
  store ptr %1, ptr %4, align 8, !tbaa !126
  %5 = load ptr, ptr %3, align 8, !tbaa !4
  %6 = call ptr @tsdn_witness_tsdp_get(ptr noundef %5)
  %7 = load ptr, ptr %4, align 8, !tbaa !126
  %8 = getelementptr inbounds nuw %struct.malloc_mutex_s, ptr %7, i32 0, i32 0
  call void @witness_assert_not_owner(ptr noundef %6, ptr noundef %8)
  %9 = load ptr, ptr %4, align 8, !tbaa !126
  %10 = call zeroext i1 @malloc_mutex_trylock_final(ptr noundef %9)
  br i1 %10, label %11, label %16

11:                                               ; preds = %2
  %12 = load ptr, ptr %4, align 8, !tbaa !126
  call void @je_malloc_mutex_lock_slow(ptr noundef %12)
  %13 = load ptr, ptr %4, align 8, !tbaa !126
  %14 = getelementptr inbounds nuw %struct.malloc_mutex_s, ptr %13, i32 0, i32 0
  %15 = getelementptr inbounds nuw %struct.anon.3, ptr %14, i32 0, i32 2
  call void @atomic_store_b(ptr noundef %15, i1 noundef zeroext true, i32 noundef 0)
  br label %16

16:                                               ; preds = %11, %2
  %17 = load ptr, ptr %3, align 8, !tbaa !4
  %18 = load ptr, ptr %4, align 8, !tbaa !126
  call void @mutex_owner_stats_update(ptr noundef %17, ptr noundef %18)
  %19 = load ptr, ptr %3, align 8, !tbaa !4
  %20 = call ptr @tsdn_witness_tsdp_get(ptr noundef %19)
  %21 = load ptr, ptr %4, align 8, !tbaa !126
  %22 = getelementptr inbounds nuw %struct.malloc_mutex_s, ptr %21, i32 0, i32 0
  call void @witness_lock(ptr noundef %20, ptr noundef %22)
  ret void
}

; Function Attrs: alwaysinline nounwind uwtable
define internal ptr @tsd_tsdn(ptr noundef %0) #1 {
  %2 = alloca ptr, align 8
  store ptr %0, ptr %2, align 8, !tbaa !14
  %3 = load ptr, ptr %2, align 8, !tbaa !14
  ret ptr %3
}

; Function Attrs: nounwind uwtable
define hidden void @je_tcaches_flush(ptr noundef %0, i32 noundef %1) #0 {
  %3 = alloca ptr, align 8
  %4 = alloca i32, align 4
  %5 = alloca ptr, align 8
  store ptr %0, ptr %3, align 8, !tbaa !14
  store i32 %1, ptr %4, align 4, !tbaa !30
  %6 = load ptr, ptr %3, align 8, !tbaa !14
  %7 = call ptr @tsd_tsdn(ptr noundef %6)
  call void @malloc_mutex_lock(ptr noundef %7, ptr noundef @tcaches_mtx)
  call void @llvm.lifetime.start.p0(i64 8, ptr %5) #12
  %8 = load ptr, ptr %3, align 8, !tbaa !14
  %9 = load ptr, ptr @je_tcaches, align 8, !tbaa !142
  %10 = load i32, ptr %4, align 4, !tbaa !30
  %11 = zext i32 %10 to i64
  %12 = getelementptr inbounds nuw %struct.tcaches_s, ptr %9, i64 %11
  %13 = call ptr @tcaches_elm_remove(ptr noundef %8, ptr noundef %12, i1 noundef zeroext true)
  store ptr %13, ptr %5, align 8, !tbaa !18
  %14 = load ptr, ptr %3, align 8, !tbaa !14
  %15 = call ptr @tsd_tsdn(ptr noundef %14)
  call void @malloc_mutex_unlock(ptr noundef %15, ptr noundef @tcaches_mtx)
  %16 = load ptr, ptr %5, align 8, !tbaa !18
  %17 = icmp ne ptr %16, null
  br i1 %17, label %18, label %21

18:                                               ; preds = %2
  %19 = load ptr, ptr %3, align 8, !tbaa !14
  %20 = load ptr, ptr %5, align 8, !tbaa !18
  call void @tcache_destroy(ptr noundef %19, ptr noundef %20, i1 noundef zeroext false)
  br label %21

21:                                               ; preds = %18, %2
  call void @llvm.lifetime.end.p0(i64 8, ptr %5) #12
  ret void
}